Microchip MPLAB XC8 Compiler V2.50

Linker command line:

-W-3 \
  --edf=C:\Program Files\Microchip\xc8\v2.50\pic\dat\20240725155939_en.msgs \
  -cn -h+dist/default/production\24011_022_CAR_BLOCK_BOX.X.production.sym \
  --cmf=dist/default/production\24011_022_CAR_BLOCK_BOX.X.production.cmf -z \
  -Q16F877A -oC:\Users\sudh1\AppData\Local\Temp\xcBsl78.1\driver_tmp_3.o \
  --defsym=__MPLAB_BUILD=1 --fixupoverflow=error \
  -Mdist/default/production/24011_022_CAR_BLOCK_BOX.X.production.map \
  --md=C:\Users\sudh1\AppData\Local\Temp\xcBsl78.1\driver_tmp_0.dat -E1 \
  -ver=XC8 Compiler --acfsm=1493 -ACODE=00h-07FFhx4 -ASTRCODE=00h-01FFFh \
  -ASTRING=00h-0FFhx32 -ACONST=00h-0FFhx32 -AENTRY=00h-0FFhx32 \
  -ACOMMON=070h-07Fh -ABANK0=020h-06Fh -ABANK1=0A0h-0EFh \
  -ABANK2=0110h-016Fh -ABANK3=0190h-01EFh \
  -ARAM=020h-06Fh,0A0h-0EFh,0110h-016Fh,0190h-01EFh \
  -AABS1=020h-07Fh,0A0h-0EFh,0110h-016Fh,0190h-01EFh -ASFR0=00h-01Fh \
  -ASFR1=080h-09Fh -ASFR2=0100h-010Fh -ASFR3=0180h-018Fh \
  -ACONFIG=02007h-02007h -DCONFIG=2 -AIDLOC=02000h-02003h -DIDLOC=2 \
  -AEEDATA=00h-0FFh/02100h -peeprom_data=EEDATA -DEEDATA=2 -DCODE=2 \
  -DSTRCODE=2 -DSTRING=2 -DCONST=2 -DENTRY=2 \
  -preset_vec=00h,intentry=04h,sivt,init,end_init -ppowerup=CODE \
  -pcinit=CODE -pfunctab=ENTRY -k \
  C:\Users\sudh1\AppData\Local\Temp\xcBsl78.1\driver_tmp_12.o \
  dist/default/production\24011_022_CAR_BLOCK_BOX.X.production.o 

Object code version is 3.11

Machine type is 16F877A



                Name                               Link     Load   Length Selector   Space Scale
C:\Users\sudh1\AppData\Local\Temp\xcBsl78.1\driver_tmp_12.o
                end_init                              C        C        3        8       0
                reset_vec                             0        0        3        0       0
                config                             2007     2007        1        0       4
                idloc                              2000     2000        4        0       5
dist/default/production\24011_022_CAR_BLOCK_BOX.X.production.o
                cinit                                 F        F       24        8       0
                intentry                              4        4        8        8       0
                config                             2007     2007        1        0       4
                idloc                              2000     2000        4        0       5
                text46                             17CA     17CA       36     2F94       0
                text45                              46D      46D      1CA        8       0
                text44                              D0D      D0D       76     1A1A       0
                text43                              D83      D83       B6     1B06       0
                text42                              950      950       36     12A0       0
                text41                             1769     1769       2F     2ED2       0
                text40                             15BE     15BE       15     2B7C       0
                text39                              9CA      9CA       4B     1394       0
                text38                              986      986       44     130C       0
                text37                             1556     1556        D     2AAC       0
                text36                             1523     1523        9     2A46       0
                text35                             152C     152C        9     2A58       0
                text34                             1535     1535        B     2A6A       0
                text33                             1694     1694       27     2D28       0
                text32                             16BB     16BB       2B     2D76       0
                text31                              637      637      177        8       0
                text30                             1563     1563       11     2AC6       0
                text29                             173C     173C       2D     2E78       0
                text28                              B7C      B7C       63     16F8       0
                text27                              A69      A69       57     14D2       0
                text26                             160A     160A       21     2C14       0
                text25                             1540     1540        B     2A80       0
                text24                             16E6     16E6       2B     2DCC       0
                text23                              7AE      7AE       4D        8       0
                text22                              B1A      B1A       62     1634       0
                text21                              A15      A15       54     142A       0
                text20                             1514     1514        7     2A28       0
                text19                              BDF      BDF       63     17BE       0
                text18                             154B     154B        B     2A96       0
                text17                             150E     150E        6     2A1C       0
                text16                             15EC     15EC       1E     2BD8       0
                text15                             1574     1574       12     2AE8       0
                text14                              CA7      CA7       66     194E       0
                text13                             1798     1798       32     2F30       0
                text12                              945      945        B     128A       0
                text11                             1711     1711       2B     2E22       0
                text10                             1598     1598       13     2B30       0
                text9                              164C     164C       22     2C98       0
                text8                               AC0      AC0       5A     1580       0
                text7                              166E     166E       26     2CDC       0
                text6                               2A2      2A2      1CB        8       0
                text5                               E39      E39       B6     1C72       0
                text4                              1586     1586       12     2B0C       0
                text3                               C42      C42       65     1884       0
                text2                              162B     162B       21     2C56       0
                text1                               EEF      EEF      111     1DDE       0
                maintext                             33       33      26F        8       0
                cstackBANK0                          20       20       32       20       1
                cstackCOMMON                         70       70        A       70       1
                cstackBANK3                         190      190       16      190       1
                clrtext                            151B     151B        8     2A36       0
                inittext                           15AB     15AB       13     2B56       0
                dataBANK1                            C6       C6       19       A0       1
                bssBANK1                             A0       A0       26       A0       1
                bssBANK0                             52       52        A       20       1
                bssCOMMON                            7A       7A        2       70       1
                stringtext                          800      800      145       10       0
                strings                            1000     1000       12     2000       0
                idataBANK1                         15D3     15D3       19     2BA6       0

TOTAL           Name                               Link     Load   Length     Space
        CLASS   CODE           
                end_init                              C        C        3         0
                cinit                                 F        F       24         0
                intentry                              4        4        8         0
                reset_vec                             0        0        3         0
                text46                             17CA     17CA       36         0
                text45                              46D      46D      1CA         0
                text44                              D0D      D0D       76         0
                text43                              D83      D83       B6         0
                text42                              950      950       36         0
                text41                             1769     1769       2F         0
                text40                             15BE     15BE       15         0
                text39                              9CA      9CA       4B         0
                text38                              986      986       44         0
                text37                             1556     1556        D         0
                text36                             1523     1523        9         0
                text35                             152C     152C        9         0
                text34                             1535     1535        B         0
                text33                             1694     1694       27         0
                text32                             16BB     16BB       2B         0
                text31                              637      637      177         0
                text30                             1563     1563       11         0
                text29                             173C     173C       2D         0
                text28                              B7C      B7C       63         0
                text27                              A69      A69       57         0
                text26                             160A     160A       21         0
                text25                             1540     1540        B         0
                text24                             16E6     16E6       2B         0
                text23                              7AE      7AE       4D         0
                text22                              B1A      B1A       62         0
                text21                              A15      A15       54         0
                text20                             1514     1514        7         0
                text19                              BDF      BDF       63         0
                text18                             154B     154B        B         0
                text17                             150E     150E        6         0
                text16                             15EC     15EC       1E         0
                text15                             1574     1574       12         0
                text14                              CA7      CA7       66         0
                text13                             1798     1798       32         0
                text12                              945      945        B         0
                text11                             1711     1711       2B         0
                text10                             1598     1598       13         0
                text9                              164C     164C       22         0
                text8                               AC0      AC0       5A         0
                text7                              166E     166E       26         0
                text6                               2A2      2A2      1CB         0
                text5                               E39      E39       B6         0
                text4                              1586     1586       12         0
                text3                               C42      C42       65         0
                text2                              162B     162B       21         0
                text1                               EEF      EEF      111         0
                maintext                             33       33      26F         0
                clrtext                            151B     151B        8         0
                inittext                           15AB     15AB       13         0
                idataBANK1                         15D3     15D3       19         0

        CLASS   STRCODE        
                stringtext                          800      800      145         0

        CLASS   STRING         
                strings                            1000     1000       12         0

        CLASS   CONST          

        CLASS   ENTRY          

        CLASS   COMMON         
                cstackCOMMON                         70       70        A         1
                bssCOMMON                            7A       7A        2         1

        CLASS   BANK0          
                cstackBANK0                          20       20       32         1
                bssBANK0                             52       52        A         1

        CLASS   BANK1          
                dataBANK1                            C6       C6       19         1
                bssBANK1                             A0       A0       26         1

        CLASS   BANK2          

        CLASS   BANK3          
                cstackBANK3                         190      190       16         1

        CLASS   RAM            

        CLASS   ABS1           
                abs_s1                               7E       7E        2         1

        CLASS   SFR0           

        CLASS   SFR1           

        CLASS   SFR2           

        CLASS   SFR3           

        CLASS   CONFIG         
                config                             2007     2007        1         4

        CLASS   IDLOC          
                idloc                              2000     2000        4         5

        CLASS   EEDATA         

        CLASS   HEAP           

        CLASS   STACK          



SEGMENTS        Name                           Load    Length   Top    Selector   Space  Class     Delta

                reset_vec                      000000  000003  000003         0       0  CODE        2
                intentry                       000004  0007F7  0007FB         8       0  CODE        2
                cstackBANK0                    000020  00003C  00005C        20       1  BANK0       1
                cstackCOMMON                   000070  00000C  00007C        70       1  COMMON      1
                bssBANK1                       0000A0  00003F  0000DF        A0       1  BANK1       1
                cstackBANK3                    000190  000016  0001A6       190       1  BANK3       1
                stringtext                     000800  000145  000945        10       0  STRCODE     2
                text12                         000945  00000B  000950      128A       0  CODE        2
                text42                         000950  000036  000986      12A0       0  CODE        2
                text38                         000986  000044  0009CA      130C       0  CODE        2
                text39                         0009CA  00004B  000A15      1394       0  CODE        2
                text21                         000A15  000054  000A69      142A       0  CODE        2
                text27                         000A69  000057  000AC0      14D2       0  CODE        2
                text8                          000AC0  00005A  000B1A      1580       0  CODE        2
                text22                         000B1A  000062  000B7C      1634       0  CODE        2
                text28                         000B7C  000063  000BDF      16F8       0  CODE        2
                text19                         000BDF  000063  000C42      17BE       0  CODE        2
                text3                          000C42  000065  000CA7      1884       0  CODE        2
                text14                         000CA7  000066  000D0D      194E       0  CODE        2
                text44                         000D0D  000076  000D83      1A1A       0  CODE        2
                text43                         000D83  0000B6  000E39      1B06       0  CODE        2
                text5                          000E39  0000B6  000EEF      1C72       0  CODE        2
                text1                          000EEF  000111  001000      1DDE       0  CODE        2
                strings                        001000  000012  001012      2000       0  STRING      2
                text17                         00150E  000006  001514      2A1C       0  CODE        2
                text20                         001514  000007  00151B      2A28       0  CODE        2
                clrtext                        00151B  000008  001523      2A36       0  CODE        2
                text36                         001523  000009  00152C      2A46       0  CODE        2
                text35                         00152C  000009  001535      2A58       0  CODE        2
                text34                         001535  00000B  001540      2A6A       0  CODE        2
                text25                         001540  00000B  00154B      2A80       0  CODE        2
                text18                         00154B  00000B  001556      2A96       0  CODE        2
                text37                         001556  00000D  001563      2AAC       0  CODE        2
                text30                         001563  000011  001574      2AC6       0  CODE        2
                text15                         001574  000012  001586      2AE8       0  CODE        2
                text4                          001586  000012  001598      2B0C       0  CODE        2
                text10                         001598  000013  0015AB      2B30       0  CODE        2
                inittext                       0015AB  000013  0015BE      2B56       0  CODE        2
                text40                         0015BE  000015  0015D3      2B7C       0  CODE        2
                idataBANK1                     0015D3  000019  0015EC      2BA6       0  CODE        2
                text16                         0015EC  00001E  00160A      2BD8       0  CODE        2
                text26                         00160A  000021  00162B      2C14       0  CODE        2
                text2                          00162B  000021  00164C      2C56       0  CODE        2
                text9                          00164C  000022  00166E      2C98       0  CODE        2
                text7                          00166E  000026  001694      2CDC       0  CODE        2
                text33                         001694  000027  0016BB      2D28       0  CODE        2
                text32                         0016BB  00002B  0016E6      2D76       0  CODE        2
                text24                         0016E6  00002B  001711      2DCC       0  CODE        2
                text11                         001711  00002B  00173C      2E22       0  CODE        2
                text29                         00173C  00002D  001769      2E78       0  CODE        2
                text41                         001769  00002F  001798      2ED2       0  CODE        2
                text13                         001798  000032  0017CA      2F30       0  CODE        2
                text46                         0017CA  000036  001800      2F94       0  CODE        2


UNUSED ADDRESS RANGES

        Name                Unused          Largest block    Delta
        BANK0            005C-006F             14           1
        BANK1            00DF-00EF             11           1
        BANK2            0110-016F             60           1
        BANK3            01A6-01EF             4A           1
        CODE             0003-0003              1           2
                         07FB-07FF              5
                         1012-150D            4FC
                         1800-1FFF            800
        COMMON           007C-007D              2           1
        CONST            0003-0003              1           2
                         07FB-07FF              5
                         1012-150D            100
                         1800-1FFF            100
        EEDATA           2100-21FF            100           2
        ENTRY            0003-0003              1           2
                         07FB-07FF              5
                         1012-150D            100
                         1800-1FFF            100
        RAM              005C-006F             14           1
                         00DF-00EF             11
                         0110-016F             60
                         01A6-01EF             4A
        SFR0             0000-001F             20           1
        SFR1             0080-009F             20           1
        SFR2             0100-010F             10           1
        SFR3             0180-018F             10           1
        STRCODE          0003-0003              1           2
                         07FB-07FF              5
                         1012-150D            4FC
                         1800-1FFF            800
        STRING           0003-0003              1           2
                         07FB-07FF              5
                         1012-150D            100
                         1800-1FFF            100

                                  Symbol Table

?___awdiv                        cstackCOMMON 0072
?___awmod                        cstackCOMMON 0072
?___fldiv                        cstackBANK0  002A
?___fltol                        cstackBANK0  0044
?___lldiv                        cstackCOMMON 0072
?___xxtofl                       cstackCOMMON 0076
?_read_adc                       cstackCOMMON 0072
?_strncmp                        cstackCOMMON 0072
_ACKDT                           (abs)        048D
_ACKEN                           (abs)        048C
_ACKSTAT                         (abs)        048E
_ADFM                            (abs)        04FF
_ADON                            (abs)        00F8
_ADRESH                          (abs)        001E
_ADRESL                          (abs)        009E
_GIE                             (abs)        005F
_GO                              (abs)        00FA
_PEIE                            (abs)        005E
_PEN                             (abs)        048A
_PORTB                           (abs)        0006
_PORTD                           (abs)        0008
_PR2                             (abs)        0092
_RCEN                            (abs)        048B
_RE1                             (abs)        0049
_RE2                             (abs)        004A
_R_nW                            (abs)        04A2
_SEN                             (abs)        0488
_SSPADD                          (abs)        0093
_SSPBUF                          (abs)        0013
_SSPCON2                         (abs)        0091
_SSPEN                           (abs)        00A5
_SSPM3                           (abs)        00A3
_T2CKPS0                         (abs)        0090
_T2CKPS1                         (abs)        0091
_TMR2IE                          (abs)        0461
_TMR2IF                          (abs)        0061
_TMR2ON                          (abs)        0092
_TRISB                           (abs)        0086
_TRISD                           (abs)        0088
_TRISE1                          (abs)        0449
_TRISE2                          (abs)        044A
__H__absolute__                  __absolute__ 0000
__Habs1                          abs1         0000
__Hbank0                         bank0        0000
__Hbank1                         bank1        0000
__Hbank2                         bank2        0000
__Hbank3                         bank3        0000
__HbssBANK0                      bssBANK0     0000
__HbssBANK1                      bssBANK1     0000
__HbssCOMMON                     bssCOMMON    0000
__Hcinit                         cinit        0033
__Hclrtext                       clrtext      0000
__Hcode                          code         0000
__Hcommon                        common       0000
__Hconfig                        config       2008
__HcstackBANK0                   cstackBANK0  0000
__HcstackBANK3                   cstackBANK3  0000
__HcstackCOMMON                  cstackCOMMON 0000
__HdataBANK1                     dataBANK1    0000
__Heeprom_data                   eeprom_data  0000
__Hend_init                      end_init     000F
__Hfunctab                       functab      0000
__Hheap                          heap         0000
__HidataBANK1                    idataBANK1   0000
__Hidloc                         idloc        2004
__Hinit                          init         000C
__Hinittext                      inittext     0000
__Hintentry                      intentry     000C
__Hmaintext                      maintext     0000
__Hpowerup                       powerup      0000
__Hram                           ram          0000
__Hreset_vec                     reset_vec    0003
__Hsfr0                          sfr0         0000
__Hsfr1                          sfr1         0000
__Hsfr2                          sfr2         0000
__Hsfr3                          sfr3         0000
__Hsivt                          sivt         000C
__Hspace_0                       (abs)        1800
__Hspace_1                       (abs)        01A6
__Hspace_2                       (abs)        0000
__Hspace_3                       (abs)        0000
__Hspace_4                       (abs)        400F
__Hstack                         stack        0000
__Hstrings                       strings      0000
__Hstringtext                    stringtext   0000
__Htext                          text         0000
__L__absolute__                  __absolute__ 0000
__Labs1                          abs1         0000
__Lbank0                         bank0        0000
__Lbank1                         bank1        0000
__Lbank2                         bank2        0000
__Lbank3                         bank3        0000
__LbssBANK0                      bssBANK0     0000
__LbssBANK1                      bssBANK1     0000
__LbssCOMMON                     bssCOMMON    0000
__Lcinit                         cinit        000F
__Lclrtext                       clrtext      0000
__Lcode                          code         0000
__Lcommon                        common       0000
__Lconfig                        config       0000
__LcstackBANK0                   cstackBANK0  0000
__LcstackBANK3                   cstackBANK3  0000
__LcstackCOMMON                  cstackCOMMON 0000
__LdataBANK1                     dataBANK1    0000
__Leeprom_data                   eeprom_data  0000
__Lend_init                      end_init     000C
__Lfunctab                       functab      0000
__Lheap                          heap         0000
__LidataBANK1                    idataBANK1   0000
__Lidloc                         idloc        0000
__Linit                          init         000C
__Linittext                      inittext     0000
__Lintentry                      intentry     0004
__Lmaintext                      maintext     0000
__Lpowerup                       powerup      0000
__Lram                           ram          0000
__Lreset_vec                     reset_vec    0000
__Lsfr0                          sfr0         0000
__Lsfr1                          sfr1         0000
__Lsfr2                          sfr2         0000
__Lsfr3                          sfr3         0000
__Lsivt                          sivt         000C
__Lspace_0                       (abs)        0000
__Lspace_1                       (abs)        0000
__Lspace_2                       (abs)        0000
__Lspace_3                       (abs)        0000
__Lspace_4                       (abs)        0000
__Lstack                         stack        0000
__Lstrings                       strings      0000
__Lstringtext                    stringtext   0000
__Ltext                          text         0000
__S0                             (abs)        1800
__S1                             (abs)        01A6
__S3                             (abs)        0000
___awdiv                         text28       0B7C
___awdiv@counter                 cstackCOMMON 0076
___awdiv@dividend                cstackCOMMON 0074
___awdiv@divisor                 cstackCOMMON 0072
___awdiv@quotient                cstackCOMMON 0078
___awdiv@sign                    cstackCOMMON 0077
___awmod                         text27       0A69
___awmod@counter                 cstackCOMMON 0076
___awmod@dividend                cstackCOMMON 0074
___awmod@divisor                 cstackCOMMON 0072
___awmod@sign                    cstackCOMMON 0077
___bmul                          text10       1598
___bmul@multiplicand             cstackCOMMON 0072
___bmul@multiplier               cstackCOMMON 0074
___bmul@product                  cstackCOMMON 0073
___fldiv                         text45       046D
___fldiv@a                       cstackBANK0  002A
___fldiv@aexp                    cstackBANK0  0043
___fldiv@b                       cstackBANK0  002E
___fldiv@bexp                    cstackBANK0  0042
___fldiv@grs                     cstackBANK0  003E
___fldiv@new_exp                 cstackBANK0  003C
___fldiv@rem                     cstackBANK0  0037
___fldiv@sign                    cstackBANK0  003B
___fltol                         text44       0D0D
___fltol@exp1                    cstackBANK0  004D
___fltol@f1                      cstackBANK0  0044
___fltol@sign1                   cstackBANK0  004C
___heap_hi                       (abs)        0000
___heap_lo                       (abs)        0000
___int_sp                        stack        0000
___int_stack_hi                  stack        0000
___int_stack_lo                  stack        0000
___latbits                       (abs)        0002
___lldiv                         text14       0CA7
___lldiv@counter                 cstackBANK0  0025
___lldiv@dividend                cstackCOMMON 0076
___lldiv@divisor                 cstackCOMMON 0072
___lldiv@quotient                cstackBANK0  0021
___sp                            stack        0000
___stack_hi                      stack        0000
___stack_lo                      stack        0000
___stackhi                       (abs)        0000
___stacklo                       (abs)        0000
___xxtofl                        text43       0D83
___xxtofl@arg                    cstackBANK0  0026
___xxtofl@exp                    cstackBANK0  0025
___xxtofl@sign                   cstackBANK0  0024
___xxtofl@val                    cstackCOMMON 0076
__end_of___awdiv                 text28       0BDF
__end_of___awmod                 text27       0AC0
__end_of___bmul                  text10       15AB
__end_of___fldiv                 text45       0637
__end_of___fltol                 text44       0D83
__end_of___lldiv                 text14       0D0D
__end_of___xxtofl                text43       0E39
__end_of__initialization         cinit        002F
__end_of__stringtab              strings      1012
__end_of_change_password         text31       07AE
__end_of_clcd_print              text41       1798
__end_of_clcd_putch              text40       15D3
__end_of_clcd_write              text42       0986
__end_of_clear_clcd_screen       text30       1574
__end_of_clear_log               text29       1769
__end_of_display_dashboard       text21       0A69
__end_of_display_time            text22       0B7C
__end_of_get_time                text23       07FB
__end_of_i2c_read                text26       162B
__end_of_i2c_rep_start           text25       154B
__end_of_i2c_start               text36       152C
__end_of_i2c_stop                text35       1535
__end_of_i2c_wait_for_idle       text37       1563
__end_of_i2c_write               text34       1540
__end_of_init_adc                text20       151B
__end_of_init_clcd               text18       1556
__end_of_init_config             text11       173C
__end_of_init_digital_keypad     text17       1514
__end_of_init_display_controller text19       0C42
__end_of_init_ds1307             text15       1586
__end_of_init_i2c                text13       17CA
__end_of_init_timer2             text12       0950
__end_of_isr                     text46       1800
__end_of_log_car_event           text8        0B1A
__end_of_login                   text6        046D
__end_of_main                    maintext     02A2
__end_of_menu_screen             text5        0EEF
__end_of_read_adc                text4        1598
__end_of_read_at24c04            text7        1694
__end_of_read_digital_keypad     text3        0CA7
__end_of_read_ds1307             text24       1711
__end_of_record_log              text9        166E
__end_of_strcpy                  text2        164C
__end_of_strncmp                 text39       0A15
__end_of_strncpy                 text38       09CA
__end_of_view_log                text1        1000
__end_of_write_at24c04           text33       16BB
__end_of_write_ds1307            text16       160A
__end_of_write_str_at24c04       text32       16E6
__initialization                 cinit        000F
__pbssBANK0                      bssBANK0     0052
__pbssBANK1                      bssBANK1     00A0
__pbssCOMMON                     bssCOMMON    007A
__pcstackBANK0                   cstackBANK0  0020
__pcstackBANK3                   cstackBANK3  0190
__pcstackCOMMON                  cstackCOMMON 0070
__pdataBANK1                     dataBANK1    00C6
__pidataBANK1                    idataBANK1   15D3
__pintentry                      intentry     0004
__pmaintext                      maintext     0033
__pstrings                       strings      1000
__pstringtext                    stringtext   0800
__ptext1                         text1        0EEF
__ptext10                        text10       1598
__ptext11                        text11       1711
__ptext12                        text12       0945
__ptext13                        text13       1798
__ptext14                        text14       0CA7
__ptext15                        text15       1574
__ptext16                        text16       15EC
__ptext17                        text17       150E
__ptext18                        text18       154B
__ptext19                        text19       0BDF
__ptext2                         text2        162B
__ptext20                        text20       1514
__ptext21                        text21       0A15
__ptext22                        text22       0B1A
__ptext23                        text23       07AE
__ptext24                        text24       16E6
__ptext25                        text25       1540
__ptext26                        text26       160A
__ptext27                        text27       0A69
__ptext28                        text28       0B7C
__ptext29                        text29       173C
__ptext3                         text3        0C42
__ptext30                        text30       1563
__ptext31                        text31       0637
__ptext32                        text32       16BB
__ptext33                        text33       1694
__ptext34                        text34       1535
__ptext35                        text35       152C
__ptext36                        text36       1523
__ptext37                        text37       1556
__ptext38                        text38       0986
__ptext39                        text39       09CA
__ptext4                         text4        1586
__ptext40                        text40       15BE
__ptext41                        text41       1769
__ptext42                        text42       0950
__ptext43                        text43       0D83
__ptext44                        text44       0D0D
__ptext45                        text45       046D
__ptext46                        text46       17CA
__ptext5                         text5        0E39
__ptext6                         text6        02A2
__ptext7                         text7        166E
__ptext8                         text8        0AC0
__ptext9                         text9        164C
__stringbase                     strings      1012
__stringtab                      strings      1000
_change_password                 text31       0637
_clcd_print                      text41       1769
_clcd_putch                      text40       15BE
_clcd_write                      text42       0950
_clear_clcd_screen               text30       1563
_clear_log                       text29       173C
_clock_reg                       bssBANK1     00A0
_display_dashboard               text21       0A15
_display_time                    text22       0B1A
_get_time                        text23       07AE
_i2c_read                        text26       160A
_i2c_rep_start                   text25       1540
_i2c_start                       text36       1523
_i2c_stop                        text35       152C
_i2c_wait_for_idle               text37       1556
_i2c_write                       text34       1535
_init_adc                        text20       1514
_init_clcd                       text18       154B
_init_config                     text11       1711
_init_digital_keypad             text17       150E
_init_display_controller         text19       0BDF
_init_ds1307                     text15       1574
_init_i2c                        text13       1798
_init_timer2                     text12       0945
_isr                             text46       17CA
_log                             bssBANK1     00A7
_log_car_event                   text8        0AC0
_log_count                       bssBANK0     0057
_login                           text6        02A2
_main                            maintext     0033
_menu                            dataBANK1    00D2
_menu_screen                     text5        0E39
_nDONE                           (abs)        00FA
_read_adc                        text4        1586
_read_at24c04                    text7        166E
_read_digital_keypad             text3        0C42
_read_ds1307                     text24       16E6
_record_log                      text9        164C
_return_time                     bssBANK0     0059
_sec                             bssBANK0     0058
_strcpy                          text2        162B
_strncmp                         text39       09CA
_strncpy                         text38       0986
_time                            bssBANK1     00BB
_view_log                        text1        0EEF
_write_at24c04                   text33       1694
_write_ds1307                    text16       15EC
_write_str_at24c04               text32       16BB
btemp                            (abs)        007E
change_password@blink_delay      bssBANK1     00A5
change_password@key              cstackBANK0  0022
change_password@new_pwd          bssBANK1     00B2
change_password@pwd_changed      bssBANK1     00A6
change_password@pwd_pos          bssCOMMON    007A
change_password@reset_flag       cstackBANK0  0024
change_password@toggle_cursor    bssBANK0     0052
clcd_print@addr                  cstackCOMMON 0078
clcd_print@str                   cstackCOMMON 0076
clcd_putch@addr                  cstackBANK0  0020
clcd_putch@data                  cstackBANK0  0021
clcd_write@byte                  cstackCOMMON 0075
clcd_write@mode                  cstackCOMMON 0072
clear_ram0                       clrtext      151B
display_dashboard@event          cstackBANK0  0022
display_dashboard@speed          cstackBANK0  0023
end_of_initialization            cinit        002F
i2c_read@ack                     cstackCOMMON 0072
i2c_read@data                    cstackCOMMON 0073
i2c_write@data                   cstackCOMMON 0072
init_ds1307@dummy                cstackCOMMON 0076
init_fetch0                      inittext     15AB
init_i2c@baud                    cstackBANK0  0026
init_ram0                        inittext     15AF
interrupt_function               intentry     0004
intlevel0                        functab      0000
intlevel1                        functab      0000
intlevel2                        functab      0000
intlevel3                        functab      0000
intlevel4                        functab      0000
intlevel5                        functab      0000
isr@count                        bssBANK1     00A3
log_car_event@event              cstackBANK0  0021
log_car_event@speed              cstackBANK0  0022
login@attempt_left               bssBANK0     0055
login@i                          bssBANK0     0056
login@j                          cstackBANK0  002B
login@key                        cstackBANK0  002A
login@reset_flag                 cstackBANK0  0022
login@stored_pwd                 cstackBANK0  0026
login@user_password              bssBANK1     00C2
main@F1242                       dataBANK1    00DC
main@F1244                       dataBANK1    00C6
main@control_flag                cstackBANK3  01A4
main@event                       cstackBANK3  019E
main@gear                        cstackBANK3  0190
main@gr                          cstackBANK3  01A1
main@key                         cstackBANK3  01A5
main@long_press                  cstackBANK3  019C
main@menu_pos                    cstackBANK3  019D
main@reset_flag                  cstackBANK3  01A3
main@speed                       cstackBANK3  01A2
menu_screen@key                  cstackBANK0  0025
menu_screen@menu_pos             bssBANK0     0054
menu_screen@reset_flag           cstackBANK0  0022
read_adc@adc_reg_val             cstackCOMMON 0074
read_at24c04@addr                cstackCOMMON 0074
read_at24c04@data                cstackCOMMON 0075
read_digital_keypad@key          cstackCOMMON 0072
read_digital_keypad@long_press   bssBANK0     005A
read_digital_keypad@once         bssCOMMON    007B
read_digital_keypad@pre_key      bssBANK0     005B
read_ds1307@addr                 cstackCOMMON 0074
read_ds1307@data                 cstackCOMMON 0075
record_log@addr                  cstackBANK0  0020
reset_vec                        reset_vec    0000
saved_w                          (abs)        007E
start                            init         000C
start_initialization             cinit        000F
strcpy@d                         cstackCOMMON 0077
strcpy@dest                      cstackCOMMON 0072
strcpy@src                       cstackCOMMON 0073
strncmp@l                        cstackCOMMON 0072
strncmp@n                        cstackCOMMON 0074
strncmp@r                        cstackCOMMON 0073
strncpy@cp                       cstackCOMMON 0079
strncpy@d                        cstackCOMMON 0072
strncpy@n                        cstackCOMMON 0075
strncpy@s                        cstackCOMMON 0073
view_log@addr                    cstackBANK0  0025
view_log@i                       cstackBANK0  0027
view_log@key                     cstackBANK0  0026
view_log@log_pos                 bssBANK0     0053
view_log@reset_flag              cstackBANK0  0022
write_at24c04@addr               cstackCOMMON 0076
write_at24c04@data               cstackCOMMON 0073
write_ds1307@addr                cstackCOMMON 0074
write_ds1307@data                cstackCOMMON 0073
write_str_at24c04@addr           cstackCOMMON 0079
write_str_at24c04@data           cstackCOMMON 0077
wtemp0                           (abs)        007E


MODULE INFORMATION

Module		Function		Class		Link	Load	Size
digital_keypad.c
		_init_digital_keypad		CODE           	150E	0000	6
		_read_digital_keypad		CODE           	0C42	0000	101

digital_keypad.c estimated size: 107

C:\Program Files\Microchip\xc8\v2.50\pic\sources\c99\common\strncmp.c
		_strncmp       		CODE           	09CA	0000	75

C:\Program Files\Microchip\xc8\v2.50\pic\sources\c99\common\strncmp.c estimated size: 75

C:\Program Files\Microchip\xc8\v2.50\pic\sources\c99\common\strncpy.c
		_strncpy       		CODE           	0986	0000	68

C:\Program Files\Microchip\xc8\v2.50\pic\sources\c99\common\strncpy.c estimated size: 68

C:\Program Files\Microchip\xc8\v2.50\pic\sources\c99\common\sprcdiv.c
		___fldiv       		CODE           	046D	0000	458

C:\Program Files\Microchip\xc8\v2.50\pic\sources\c99\common\sprcdiv.c estimated size: 458

timer.c
		_init_timer2   		CODE           	0945	0000	11

timer.c estimated size: 11

i2c.c
		_i2c_start     		CODE           	1523	0000	9
		_i2c_rep_start 		CODE           	1540	0000	11
		_i2c_write     		CODE           	1535	0000	11
		_i2c_stop      		CODE           	152C	0000	9
		_i2c_read      		CODE           	160A	0000	33
		_init_i2c      		CODE           	1798	0000	50
		_i2c_wait_for_idle		CODE           	1556	0000	13

i2c.c estimated size: 136

C:\Program Files\Microchip\xc8\v2.50\pic\sources\c99\common\awmod.c
		___awmod       		CODE           	0A69	0000	87

C:\Program Files\Microchip\xc8\v2.50\pic\sources\c99\common\awmod.c estimated size: 87

ds1307.c
		_read_ds1307   		CODE           	16E6	0000	43
		_write_ds1307  		CODE           	15EC	0000	30
		_init_ds1307   		CODE           	1574	0000	18

ds1307.c estimated size: 91

adc.c
		_init_adc      		CODE           	1514	0000	7
		_read_adc      		CODE           	1586	0000	18

adc.c estimated size: 25

C:\Program Files\Microchip\xc8\v2.50\pic\sources\c99\common\__lldiv.c
		___lldiv       		CODE           	0CA7	0000	102

C:\Program Files\Microchip\xc8\v2.50\pic\sources\c99\common\__lldiv.c estimated size: 102

C:\Program Files\Microchip\xc8\v2.50\pic\sources\c99\common\xxtofl.c
		___xxtofl      		CODE           	0D83	0000	182

C:\Program Files\Microchip\xc8\v2.50\pic\sources\c99\common\xxtofl.c estimated size: 182

isr.c
		_isr           		CODE           	17CA	0000	54

isr.c estimated size: 54

C:\Program Files\Microchip\xc8\v2.50\pic\sources\c99\common\strcpy.c
		_strcpy        		CODE           	162B	0000	33

C:\Program Files\Microchip\xc8\v2.50\pic\sources\c99\common\strcpy.c estimated size: 33

shared
		__stringtab    		STRING         	1000	0000	18
		__initialization		CODE           	000F	0000	32

shared estimated size: 50

clcd.c
		_clcd_write    		CODE           	0950	0000	54
		_clcd_print    		CODE           	1769	0000	47
		_clcd_putch    		CODE           	15BE	0000	21
		_init_display_controller		CODE           	0BDF	0000	99
		_init_clcd     		CODE           	154B	0000	11

clcd.c estimated size: 232

C:\Program Files\Microchip\xc8\v2.50\pic\sources\c99\common\awdiv.c
		___awdiv       		CODE           	0B7C	0000	99

C:\Program Files\Microchip\xc8\v2.50\pic\sources\c99\common\awdiv.c estimated size: 99

C:\Program Files\Microchip\xc8\v2.50\pic\sources\c99\common\fltol.c
		___fltol       		CODE           	0D0D	0000	118

C:\Program Files\Microchip\xc8\v2.50\pic\sources\c99\common\fltol.c estimated size: 118

at24c04.c
		_write_at24c04 		CODE           	1694	0000	39
		_write_str_at24c04		CODE           	16BB	0000	43
		_read_at24c04  		CODE           	166E	0000	38

at24c04.c estimated size: 120

C:\Program Files\Microchip\xc8\v2.50\pic\sources\c99\common\Umul8.c
		___bmul        		CODE           	1598	0000	19

C:\Program Files\Microchip\xc8\v2.50\pic\sources\c99\common\Umul8.c estimated size: 19

main.c
		_main          		CODE           	0033	0000	623
		_init_config   		CODE           	1711	0000	43

main.c estimated size: 666

car_block_box_def.c
		_view_log      		CODE           	0EEF	0000	273
		_log_car_event 		CODE           	0AC0	0000	90
		_display_time  		CODE           	0B1A	0000	98
		_menu_screen   		CODE           	0E39	0000	182
		_change_password		CODE           	0637	0000	375
		_display_dashboard		CODE           	0A15	0000	84
		_get_time      		CODE           	07AE	0000	77
		_record_log    		CODE           	164C	0000	34
		_clear_log     		CODE           	173C	0000	45
		_clear_clcd_screen		CODE           	1563	0000	17
		_login         		CODE           	02A2	0000	459

car_block_box_def.c estimated size: 1734

